target datalayout = "e-m:e-p270:32:32-p271:32:32-p272:64:64-i64:64-i128:128-f80:128-n8:16:32:64-S128"
target triple = "x86_64-pc-linux-gnu"

; Function Attrs: mustprogress nounwind uwtable
define hidden void @_Z5resetjPj(i32 noundef %0, ptr noundef %1) #4 {
  %3 = alloca i32, align 4
  %4 = alloca ptr, align 8
  %5 = alloca i32, align 4
  store i32 %0, ptr %3, align 4, !tbaa !3
  store ptr %1, ptr %4, align 8, !tbaa !7
  call void @llvm.lifetime.start.p0(i64 4, ptr %5) #3
  store i32 0, ptr %5, align 4, !tbaa !3
  br label %6

6:                                                ; preds = %16, %2
  %7 = load i32, ptr %5, align 4, !tbaa !3
  %8 = load i32, ptr %3, align 4, !tbaa !3
  %9 = icmp ult i32 %7, %8
  br i1 %9, label %11, label %10

10:                                               ; preds = %6
  call void @llvm.lifetime.end.p0(i64 4, ptr %5) #3
  br label %19

11:                                               ; preds = %6
  %12 = load ptr, ptr %4, align 8, !tbaa !7
  %13 = load i32, ptr %5, align 4, !tbaa !3
  %14 = zext i32 %13 to i64
  %15 = getelementptr inbounds nuw i32, ptr %12, i64 %14
  store i32 0, ptr %15, align 4, !tbaa !3
  br label %16

16:                                               ; preds = %11
  %17 = load i32, ptr %5, align 4, !tbaa !3
  %18 = add i32 %17, 1
  store i32 %18, ptr %5, align 4, !tbaa !3
  br label %6, !llvm.loop !17

19:                                               ; preds = %10
  ret void
}