; Function Attrs: mustprogress nofree norecurse nosync nounwind willreturn memory(argmem: write) uwtable
define hidden void @_Z5resetjPj(i32 noundef %0, ptr noundef writeonly captures(none) %1) local_unnamed_addr #7 {
  %.not = icmp eq i32 %0, 0
  br i1 %.not, label %._crit_edge, label %.lr.ph.preheader

.lr.ph.preheader:                                 ; preds = %2
  %3 = zext i32 %0 to i64
  %4 = shl nuw nsw i64 %3, 2
  tail call void @llvm.memset.p0.i64(ptr align 4 %1, i8 0, i64 %4, i1 false), !tbaa !3
  br label %._crit_edge

._crit_edge:                                      ; preds = %.lr.ph.preheader, %2
  ret void
}